Certificate:
    Data:
        Version: 3 (0x2)
        Serial Number: 9 (0x9)
        Signature Algorithm: md5WithRSAEncryption
        Issuer: CN=OWL Certificate Authority, ST=CA, C=US/emailAddress=root@owl, O=Open Wonderland, OU=Open Wonderland
        Validity
            Not Before: Dec 10 23:34:27 2010 GMT
            Not After : Dec  9 23:34:27 2015 GMT
        Subject: CN=Open Wonderland, ST=CA, C=US, O=Open Wonderland, OU=Open Wonderland Foundation
        Subject Public Key Info:
            Public Key Algorithm: rsaEncryption
            RSA Public Key: (1024 bit)
                Modulus (1024 bit):
                    00:cf:3c:46:e1:39:96:85:7f:92:8f:df:a6:0e:7b:
                    00:1d:1f:6d:be:3a:d8:1e:62:fa:cd:76:93:ed:8b:
                    73:d5:55:c3:13:67:28:d2:31:d4:af:4c:42:e8:4d:
                    96:26:99:9b:cf:ae:97:39:51:32:b7:86:8c:18:dd:
                    5a:99:46:8f:ac:ea:d0:4d:63:b5:cc:b8:1b:bb:5c:
                    4d:4f:a5:ba:06:44:25:a3:b3:6d:49:f0:09:38:df:
                    1a:68:ef:7d:e7:6b:57:a0:bc:a6:56:5d:da:49:17:
                    7f:81:ee:fd:d0:09:c7:70:a7:48:58:e9:da:65:ea:
                    9a:c7:0d:cb:6f:18:74:c8:7f
                Exponent: 65537 (0x10001)
        X509v3 extensions:
            X509v3 Subject Alternative Name: 
                IP Address:192.168.3.42, DNS:jd-srv.dyndns.org
            X509v3 Basic Constraints: 
                CA:FALSE
            Netscape Cert Type: 
                SSL Server
    Signature Algorithm: md5WithRSAEncryption
        2b:63:d9:30:a7:0d:cc:e4:f8:5a:90:27:ed:0c:1e:0e:4f:a9:
        8c:c3:9f:c7:e5:88:db:57:04:e7:60:7f:36:8b:c4:4b:91:d5:
        6c:2f:b8:3b:9f:95:1d:9e:f9:ef:e8:25:54:fe:c9:e9:19:63:
        f5:e9:32:ee:67:a4:71:bd:fa:6a:ed:a9:fc:ca:b7:ec:e5:fd:
        f3:a5:35:66:56:9b:4f:26:a2:25:cf:26:d8:15:e6:23:15:13:
        43:4e:54:da:b0:6b:cd:1e:65:72:03:07:c7:70:d9:53:cf:a9:
        ac:32:fa:be:a8:f5:79:f6:4e:04:e5:f1:b9:78:21:9c:5f:b0:
        c9:c3:cb:8f:bb:7f:dd:55:83:8a:90:6d:32:d4:b9:d6:9c:4a:
        41:ad:7e:0d:b4:30:16:f1:00:9e:be:cc:86:b9:e2:15:aa:d1:
        4d:4d:de:75:23:2d:1f:01:69:d9:44:f4:4f:00:70:63:ea:50:
        69:73:8d:20:9d:15:be:8d:7e:9f:87:1b:e1:1c:fc:30:41:ff:
        1f:3e:f0:64:3d:e5:7a:6c:70:ed:4d:84:57:e0:a7:5d:0b:f0:
        50:f9:d0:2e:74:27:13:34:fe:f5:34:c2:21:0c:1b:72:dd:5e:
        e2:98:0f:af:88:ff:6b:c4:e6:31:11:82:4e:a3:1a:44:40:ec:
        08:1b:bf:c6
-----BEGIN CERTIFICATE-----
MIIDOjCCAiKgAwIBAgIBCTANBgkqhkiG9w0BAQQFADCBizEiMCAGA1UEAxMZT1dM
IENlcnRpZmljYXRlIEF1dGhvcml0eTELMAkGA1UECBMCQ0ExCzAJBgNVBAYTAlVT
MRcwFQYJKoZIhvcNAQkBFghyb290QG93bDEYMBYGA1UEChMPT3BlbiBXb25kZXJs
YW5kMRgwFgYDVQQLEw9PcGVuIFdvbmRlcmxhbmQwHhcNMTAxMjEwMjMzNDI3WhcN
MTUxMjA5MjMzNDI3WjBzMRgwFgYDVQQDEw9PcGVuIFdvbmRlcmxhbmQxCzAJBgNV
BAgTAkNBMQswCQYDVQQGEwJVUzEYMBYGA1UEChMPT3BlbiBXb25kZXJsYW5kMSMw
IQYDVQQLExpPcGVuIFdvbmRlcmxhbmQgRm91bmRhdGlvbjCBnzANBgkqhkiG9w0B
AQEFAAOBjQAwgYkCgYEAzzxG4TmWhX+Sj9+mDnsAHR9tvjrYHmL6zXaT7Ytz1VXD
E2co0jHUr0xC6E2WJpmbz66XOVEyt4aMGN1amUaPrOrQTWO1zLgbu1xNT6W6BkQl
o7NtSfAJON8aaO9952tXoLymVl3aSRd/ge790AnHcKdIWOnaZeqaxw3Lbxh0yH8C
AwEAAaNEMEIwIgYDVR0RBBswGYcEwKgDKoIRamQtc3J2LmR5bmRucy5vcmcwCQYD
VR0TBAIwADARBglghkgBhvhCAQEEBAMCBkAwDQYJKoZIhvcNAQEEBQADggEBACtj
2TCnDczk+FqQJ+0MHg5PqYzDn8fliNtXBOdgfzaLxEuR1WwvuDuflR2e+e/oJVT+
yekZY/XpMu5npHG9+mrtqfzKt+zl/fOlNWZWm08moiXPJtgV5iMVE0NOVNqwa80e
ZXIDB8dw2VPPqawy+r6o9Xn2TgTl8bl4IZxfsMnDy4+7f91Vg4qQbTLUudacSkGt
fg20MBbxAJ6+zIa54hWq0U1N3nUjLR8BadlE9E8AcGPqUGlzjSCdFb6Nfp+HG+Ec
/DBB/x8+8GQ95XpscO1NhFfgp10L8FD50C50JxM0/vU0wiEMG3LdXuKYD6+I/2vE
5jERgk6jGkRA7Agbv8Y=
-----END CERTIFICATE-----
